target datalayout = "e-m:e-p270:32:32-p271:32:32-p272:64:64-i64:64-i128:128-f80:128-n8:16:32:64-S128"
target triple = "x86_64-pc-linux-gnu"

%struct.MIContext = type { ptr, %struct.AVMotionEstContext, %struct.AVRational, i32, i32, i32, i32, i32, i32, i32, [4 x %struct.Frame], [128 x %struct.Cluster], ptr, ptr, ptr, ptr, [3 x ptr], i64, i32, i32, i32, i32, i32, i32, i32, ptr, double, double, i32, i32, i32 }
%struct.AVMotionEstContext = type { ptr, ptr, i32, i32, i32, i32, i32, i32, i32, i32, i32, i32, i32, [2 x %struct.AVMotionEstPredictor], ptr }
%struct.AVMotionEstPredictor = type { [10 x [2 x i32]], i32 }
%struct.AVRational = type { i32, i32 }
%struct.Frame = type { ptr, ptr }
%struct.Cluster = type { [2 x i64], i32 }
%struct.Block = type { [2 x [2 x i16]], i32, i64, i32, ptr }

; Function Attrs: nounwind uwtable
define internal i32 @var_size_bme(ptr noundef %0, ptr noundef %1, i32 noundef %2, i32 noundef %3, i32 noundef %4) #1 {
  %6 = alloca i32, align 4
  %7 = alloca ptr, align 8
  %8 = alloca ptr, align 8
  %9 = alloca i32, align 4
  %10 = alloca i32, align 4
  %11 = alloca i32, align 4
  %12 = alloca ptr, align 8
  %13 = alloca i64, align 8
  %14 = alloca i64, align 8
  %15 = alloca i32, align 4
  %16 = alloca i32, align 4
  %17 = alloca i32, align 4
  %18 = alloca i32, align 4
  %19 = alloca i32, align 4
  %20 = alloca i32, align 4
  %21 = alloca i32, align 4
  %22 = alloca i32, align 4
  %23 = alloca ptr, align 8
  %24 = alloca [2 x i32], align 4
  store ptr %0, ptr %7, align 8, !tbaa !22
  store ptr %1, ptr %8, align 8, !tbaa !100
  store i32 %2, ptr %9, align 4, !tbaa !34
  store i32 %3, ptr %10, align 4, !tbaa !34
  store i32 %4, ptr %11, align 4, !tbaa !34
  call void @llvm.lifetime.start.p0(i64 8, ptr %12) #12
  %25 = load ptr, ptr %7, align 8, !tbaa !22
  %26 = getelementptr inbounds nuw %struct.MIContext, ptr %25, i32 0, i32 1
  store ptr %26, ptr %12, align 8, !tbaa !66
  call void @llvm.lifetime.start.p0(i64 8, ptr %13) #12
  call void @llvm.lifetime.start.p0(i64 8, ptr %14) #12
  call void @llvm.lifetime.start.p0(i64 4, ptr %15) #12
  %27 = load ptr, ptr %12, align 8, !tbaa !66
  %28 = getelementptr inbounds nuw %struct.AVMotionEstContext, ptr %27, i32 0, i32 3
  %29 = load i32, ptr %28, align 4, !tbaa !159
  store i32 %29, ptr %15, align 4, !tbaa !34
  call void @llvm.lifetime.start.p0(i64 4, ptr %16) #12
  %30 = load ptr, ptr %12, align 8, !tbaa !66
  %31 = getelementptr inbounds nuw %struct.AVMotionEstContext, ptr %30, i32 0, i32 4
  %32 = load i32, ptr %31, align 8, !tbaa !174
  store i32 %32, ptr %16, align 4, !tbaa !34
  call void @llvm.lifetime.start.p0(i64 4, ptr %17) #12
  call void @llvm.lifetime.start.p0(i64 4, ptr %18) #12
  call void @llvm.lifetime.start.p0(i64 4, ptr %19) #12
  call void @llvm.lifetime.start.p0(i64 4, ptr %20) #12
  call void @llvm.lifetime.start.p0(i64 4, ptr %21) #12
  %33 = load i32, ptr %11, align 4, !tbaa !34
  %34 = shl i32 1, %33
  %35 = load ptr, ptr %12, align 8, !tbaa !66
  %36 = getelementptr inbounds nuw %struct.AVMotionEstContext, ptr %35, i32 0, i32 3
  store i32 %34, ptr %36, align 4, !tbaa !159
  %37 = load ptr, ptr %12, align 8, !tbaa !66
  %38 = getelementptr inbounds nuw %struct.AVMotionEstContext, ptr %37, i32 0, i32 14
  %39 = load ptr, ptr %38, align 8, !tbaa !89
  %40 = load ptr, ptr %12, align 8, !tbaa !66
  %41 = load i32, ptr %9, align 4, !tbaa !34
  %42 = load i32, ptr %10, align 4, !tbaa !34
  %43 = load i32, ptr %9, align 4, !tbaa !34
  %44 = load ptr, ptr %8, align 8, !tbaa !100
  %45 = getelementptr inbounds nuw %struct.Block, ptr %44, i32 0, i32 0
  %46 = getelementptr inbounds [2 x [2 x i16]], ptr %45, i64 0, i64 0
  %47 = getelementptr inbounds [2 x i16], ptr %46, i64 0, i64 0
  %48 = load i16, ptr %47, align 8, !tbaa !109
  %49 = sext i16 %48 to i32
  %50 = add nsw i32 %43, %49
  %51 = load i32, ptr %10, align 4, !tbaa !34
  %52 = load ptr, ptr %8, align 8, !tbaa !100
  %53 = getelementptr inbounds nuw %struct.Block, ptr %52, i32 0, i32 0
  %54 = getelementptr inbounds [2 x [2 x i16]], ptr %53, i64 0, i64 0
  %55 = getelementptr inbounds [2 x i16], ptr %54, i64 0, i64 1
  %56 = load i16, ptr %55, align 2, !tbaa !109
  %57 = sext i16 %56 to i32
  %58 = add nsw i32 %51, %57
  %59 = call i64 %39(ptr noundef %40, i32 noundef %41, i32 noundef %42, i32 noundef %50, i32 noundef %58)
  store i64 %59, ptr %14, align 8, !tbaa !116
  %60 = load i32, ptr %15, align 4, !tbaa !34
  %61 = load ptr, ptr %12, align 8, !tbaa !66
  %62 = getelementptr inbounds nuw %struct.AVMotionEstContext, ptr %61, i32 0, i32 3
  store i32 %60, ptr %62, align 4, !tbaa !159
  %63 = load i64, ptr %14, align 8, !tbaa !116
  %64 = icmp ne i64 %63, 0
  br i1 %64, label %68, label %65

65:                                               ; preds = %5
  %66 = load ptr, ptr %8, align 8, !tbaa !100
  %67 = getelementptr inbounds nuw %struct.Block, ptr %66, i32 0, i32 3
  store i32 0, ptr %67, align 8, !tbaa !138
  store i32 0, ptr %6, align 4
  store i32 1, ptr %22, align 4
  br label %237

68:                                               ; preds = %5
  %69 = load ptr, ptr %8, align 8, !tbaa !100
  %70 = getelementptr inbounds nuw %struct.Block, ptr %69, i32 0, i32 4
  %71 = load ptr, ptr %70, align 8, !tbaa !175
  %72 = icmp ne ptr %71, null
  br i1 %72, label %83, label %73

73:                                               ; preds = %68
  %74 = call noalias ptr @av_mallocz(i64 noundef 160)
  %75 = load ptr, ptr %8, align 8, !tbaa !100
  %76 = getelementptr inbounds nuw %struct.Block, ptr %75, i32 0, i32 4
  store ptr %74, ptr %76, align 8, !tbaa !175
  %77 = load ptr, ptr %8, align 8, !tbaa !100
  %78 = getelementptr inbounds nuw %struct.Block, ptr %77, i32 0, i32 4
  %79 = load ptr, ptr %78, align 8, !tbaa !175
  %80 = icmp ne ptr %79, null
  br i1 %80, label %82, label %81

81:                                               ; preds = %73
  store i32 -12, ptr %6, align 4
  store i32 1, ptr %22, align 4
  br label %237

82:                                               ; preds = %73
  br label %83

83:                                               ; preds = %82, %68
  %84 = load ptr, ptr %8, align 8, !tbaa !100
  %85 = getelementptr inbounds nuw %struct.Block, ptr %84, i32 0, i32 3
  store i32 1, ptr %85, align 8, !tbaa !138
  store i32 0, ptr %20, align 4, !tbaa !34
  br label %86

86:                                               ; preds = %233, %83
  %87 = load i32, ptr %20, align 4, !tbaa !34
  %88 = icmp slt i32 %87, 2
  br i1 %88, label %89, label %236

89:                                               ; preds = %86
  store i32 0, ptr %19, align 4, !tbaa !34
  br label %90

90:                                               ; preds = %229, %89
  %91 = load i32, ptr %19, align 4, !tbaa !34
  %92 = icmp slt i32 %91, 2
  br i1 %92, label %93, label %232

93:                                               ; preds = %90
  call void @llvm.lifetime.start.p0(i64 8, ptr %23) #12
  %94 = load ptr, ptr %8, align 8, !tbaa !100
  %95 = getelementptr inbounds nuw %struct.Block, ptr %94, i32 0, i32 4
  %96 = load ptr, ptr %95, align 8, !tbaa !175
  %97 = load i32, ptr %19, align 4, !tbaa !34
  %98 = load i32, ptr %20, align 4, !tbaa !34
  %99 = mul nsw i32 %98, 2
  %100 = add nsw i32 %97, %99
  %101 = sext i32 %100 to i64
  %102 = getelementptr inbounds %struct.Block, ptr %96, i64 %101
  store ptr %102, ptr %23, align 8, !tbaa !100
  call void @llvm.lifetime.start.p0(i64 8, ptr %24) #12
  %103 = load i32, ptr %9, align 4, !tbaa !34
  %104 = load ptr, ptr %8, align 8, !tbaa !100
  %105 = getelementptr inbounds nuw %struct.Block, ptr %104, i32 0, i32 0
  %106 = getelementptr inbounds [2 x [2 x i16]], ptr %105, i64 0, i64 0
  %107 = getelementptr inbounds [2 x i16], ptr %106, i64 0, i64 0
  %108 = load i16, ptr %107, align 8, !tbaa !109
  %109 = sext i16 %108 to i32
  %110 = add nsw i32 %103, %109
  store i32 %110, ptr %24, align 4, !tbaa !34
  %111 = getelementptr inbounds i32, ptr %24, i64 1
  %112 = load i32, ptr %10, align 4, !tbaa !34
  %113 = load ptr, ptr %8, align 8, !tbaa !100
  %114 = getelementptr inbounds nuw %struct.Block, ptr %113, i32 0, i32 0
  %115 = getelementptr inbounds [2 x [2 x i16]], ptr %114, i64 0, i64 0
  %116 = getelementptr inbounds [2 x i16], ptr %115, i64 0, i64 1
  %117 = load i16, ptr %116, align 2, !tbaa !109
  %118 = sext i16 %117 to i32
  %119 = add nsw i32 %112, %118
  store i32 %119, ptr %111, align 4, !tbaa !34
  %120 = load i32, ptr %11, align 4, !tbaa !34
  %121 = sub nsw i32 %120, 1
  %122 = shl i32 1, %121
  %123 = load ptr, ptr %12, align 8, !tbaa !66
  %124 = getelementptr inbounds nuw %struct.AVMotionEstContext, ptr %123, i32 0, i32 3
  store i32 %122, ptr %124, align 4, !tbaa !159
  %125 = load ptr, ptr %12, align 8, !tbaa !66
  %126 = getelementptr inbounds nuw %struct.AVMotionEstContext, ptr %125, i32 0, i32 4
  store i32 2, ptr %126, align 8, !tbaa !174
  %127 = load ptr, ptr %8, align 8, !tbaa !100
  %128 = getelementptr inbounds nuw %struct.Block, ptr %127, i32 0, i32 0
  %129 = getelementptr inbounds [2 x [2 x i16]], ptr %128, i64 0, i64 0
  %130 = getelementptr inbounds [2 x i16], ptr %129, i64 0, i64 0
  %131 = load i16, ptr %130, align 8, !tbaa !109
  %132 = sext i16 %131 to i32
  %133 = load ptr, ptr %12, align 8, !tbaa !66
  %134 = getelementptr inbounds nuw %struct.AVMotionEstContext, ptr %133, i32 0, i32 11
  store i32 %132, ptr %134, align 4, !tbaa !145
  %135 = load ptr, ptr %8, align 8, !tbaa !100
  %136 = getelementptr inbounds nuw %struct.Block, ptr %135, i32 0, i32 0
  %137 = getelementptr inbounds [2 x [2 x i16]], ptr %136, i64 0, i64 0
  %138 = getelementptr inbounds [2 x i16], ptr %137, i64 0, i64 1
  %139 = load i16, ptr %138, align 2, !tbaa !109
  %140 = sext i16 %139 to i32
  %141 = load ptr, ptr %12, align 8, !tbaa !66
  %142 = getelementptr inbounds nuw %struct.AVMotionEstContext, ptr %141, i32 0, i32 12
  store i32 %140, ptr %142, align 8, !tbaa !146
  %143 = load ptr, ptr %7, align 8, !tbaa !22
  %144 = getelementptr inbounds nuw %struct.MIContext, ptr %143, i32 0, i32 1
  %145 = load i32, ptr %9, align 4, !tbaa !34
  %146 = load ptr, ptr %8, align 8, !tbaa !100
  %147 = getelementptr inbounds nuw %struct.Block, ptr %146, i32 0, i32 0
  %148 = getelementptr inbounds [2 x [2 x i16]], ptr %147, i64 0, i64 0
  %149 = getelementptr inbounds [2 x i16], ptr %148, i64 0, i64 0
  %150 = load i16, ptr %149, align 8, !tbaa !109
  %151 = sext i16 %150 to i32
  %152 = add nsw i32 %145, %151
  %153 = load i32, ptr %10, align 4, !tbaa !34
  %154 = load ptr, ptr %8, align 8, !tbaa !100
  %155 = getelementptr inbounds nuw %struct.Block, ptr %154, i32 0, i32 0
  %156 = getelementptr inbounds [2 x [2 x i16]], ptr %155, i64 0, i64 0
  %157 = getelementptr inbounds [2 x i16], ptr %156, i64 0, i64 1
  %158 = load i16, ptr %157, align 2, !tbaa !109
  %159 = sext i16 %158 to i32
  %160 = add nsw i32 %153, %159
  %161 = getelementptr inbounds [2 x i32], ptr %24, i64 0, i64 0
  %162 = call i64 @ff_me_search_ds(ptr noundef %144, i32 noundef %152, i32 noundef %160, ptr noundef %161)
  store i64 %162, ptr %13, align 8, !tbaa !116
  %163 = getelementptr inbounds [2 x i32], ptr %24, i64 0, i64 0
  %164 = load i32, ptr %163, align 4, !tbaa !34
  %165 = load i32, ptr %9, align 4, !tbaa !34
  %166 = sub nsw i32 %164, %165
  store i32 %166, ptr %17, align 4, !tbaa !34
  %167 = getelementptr inbounds [2 x i32], ptr %24, i64 0, i64 1
  %168 = load i32, ptr %167, align 4, !tbaa !34
  %169 = load i32, ptr %10, align 4, !tbaa !34
  %170 = sub nsw i32 %168, %169
  store i32 %170, ptr %18, align 4, !tbaa !34
  %171 = load i32, ptr %15, align 4, !tbaa !34
  %172 = load ptr, ptr %12, align 8, !tbaa !66
  %173 = getelementptr inbounds nuw %struct.AVMotionEstContext, ptr %172, i32 0, i32 3
  store i32 %171, ptr %173, align 4, !tbaa !159
  %174 = load i32, ptr %16, align 4, !tbaa !34
  %175 = load ptr, ptr %12, align 8, !tbaa !66
  %176 = getelementptr inbounds nuw %struct.AVMotionEstContext, ptr %175, i32 0, i32 4
  store i32 %174, ptr %176, align 8, !tbaa !174
  %177 = load i64, ptr %13, align 8, !tbaa !116
  %178 = load i64, ptr %14, align 8, !tbaa !116
  %179 = udiv i64 %178, 4
  %180 = icmp ult i64 %177, %179
  br i1 %180, label %181, label %222

181:                                              ; preds = %93
  %182 = load i32, ptr %17, align 4, !tbaa !34
  %183 = trunc i32 %182 to i16
  %184 = load ptr, ptr %23, align 8, !tbaa !100
  %185 = getelementptr inbounds nuw %struct.Block, ptr %184, i32 0, i32 0
  %186 = getelementptr inbounds [2 x [2 x i16]], ptr %185, i64 0, i64 0
  %187 = getelementptr inbounds [2 x i16], ptr %186, i64 0, i64 0
  store i16 %183, ptr %187, align 8, !tbaa !109
  %188 = load i32, ptr %18, align 4, !tbaa !34
  %189 = trunc i32 %188 to i16
  %190 = load ptr, ptr %23, align 8, !tbaa !100
  %191 = getelementptr inbounds nuw %struct.Block, ptr %190, i32 0, i32 0
  %192 = getelementptr inbounds [2 x [2 x i16]], ptr %191, i64 0, i64 0
  %193 = getelementptr inbounds [2 x i16], ptr %192, i64 0, i64 1
  store i16 %189, ptr %193, align 2, !tbaa !109
  %194 = load i32, ptr %11, align 4, !tbaa !34
  %195 = icmp sgt i32 %194, 1
  br i1 %195, label %196, label %218

196:                                              ; preds = %181
  %197 = load ptr, ptr %7, align 8, !tbaa !22
  %198 = load ptr, ptr %23, align 8, !tbaa !100
  %199 = load i32, ptr %9, align 4, !tbaa !34
  %200 = load i32, ptr %19, align 4, !tbaa !34
  %201 = load i32, ptr %11, align 4, !tbaa !34
  %202 = sub nsw i32 %201, 1
  %203 = shl i32 %200, %202
  %204 = add nsw i32 %199, %203
  %205 = load i32, ptr %10, align 4, !tbaa !34
  %206 = load i32, ptr %20, align 4, !tbaa !34
  %207 = load i32, ptr %11, align 4, !tbaa !34
  %208 = sub nsw i32 %207, 1
  %209 = shl i32 %206, %208
  %210 = add nsw i32 %205, %209
  %211 = load i32, ptr %11, align 4, !tbaa !34
  %212 = sub nsw i32 %211, 1
  %213 = call i32 @var_size_bme(ptr noundef %197, ptr noundef %198, i32 noundef %204, i32 noundef %210, i32 noundef %212)
  store i32 %213, ptr %21, align 4, !tbaa !34
  %214 = icmp ne i32 %213, 0
  br i1 %214, label %215, label %217

215:                                              ; preds = %196
  %216 = load i32, ptr %21, align 4, !tbaa !34
  store i32 %216, ptr %6, align 4
  store i32 1, ptr %22, align 4
  br label %226

217:                                              ; preds = %196
  br label %221

218:                                              ; preds = %181
  %219 = load ptr, ptr %23, align 8, !tbaa !100
  %220 = getelementptr inbounds nuw %struct.Block, ptr %219, i32 0, i32 3
  store i32 0, ptr %220, align 8, !tbaa !138
  br label %221

221:                                              ; preds = %218, %217
  br label %225

222:                                              ; preds = %93
  %223 = load ptr, ptr %8, align 8, !tbaa !100
  %224 = getelementptr inbounds nuw %struct.Block, ptr %223, i32 0, i32 3
  store i32 0, ptr %224, align 8, !tbaa !138
  store i32 0, ptr %6, align 4
  store i32 1, ptr %22, align 4
  br label %226

225:                                              ; preds = %221
  store i32 0, ptr %22, align 4
  br label %226

226:                                              ; preds = %225, %222, %215
  call void @llvm.lifetime.end.p0(i64 8, ptr %24) #12
  call void @llvm.lifetime.end.p0(i64 8, ptr %23) #12
  %227 = load i32, ptr %22, align 4
  switch i32 %227, label %237 [
    i32 0, label %228
  ]

228:                                              ; preds = %226
  br label %229

229:                                              ; preds = %228
  %230 = load i32, ptr %19, align 4, !tbaa !34
  %231 = add nsw i32 %230, 1
  store i32 %231, ptr %19, align 4, !tbaa !34
  br label %90, !llvm.loop !176

232:                                              ; preds = %90
  br label %233

233:                                              ; preds = %232
  %234 = load i32, ptr %20, align 4, !tbaa !34
  %235 = add nsw i32 %234, 1
  store i32 %235, ptr %20, align 4, !tbaa !34
  br label %86, !llvm.loop !177

236:                                              ; preds = %86
  store i32 0, ptr %6, align 4
  store i32 1, ptr %22, align 4
  br label %237

237:                                              ; preds = %236, %226, %81, %65
  call void @llvm.lifetime.end.p0(i64 4, ptr %21) #12
  call void @llvm.lifetime.end.p0(i64 4, ptr %20) #12
  call void @llvm.lifetime.end.p0(i64 4, ptr %19) #12
  call void @llvm.lifetime.end.p0(i64 4, ptr %18) #12
  call void @llvm.lifetime.end.p0(i64 4, ptr %17) #12
  call void @llvm.lifetime.end.p0(i64 4, ptr %16) #12
  call void @llvm.lifetime.end.p0(i64 4, ptr %15) #12
  call void @llvm.lifetime.end.p0(i64 8, ptr %14) #12
  call void @llvm.lifetime.end.p0(i64 8, ptr %13) #12
  call void @llvm.lifetime.end.p0(i64 8, ptr %12) #12
  %238 = load i32, ptr %6, align 4
  ret i32 %238
}