; Function Attrs: nounwind uwtable
define internal fastcc range(i32 -12, 1) i32 @var_size_bme(ptr noundef %0, ptr noundef captures(none) %1, i32 noundef %2, i32 noundef %3, i32 noundef %4) unnamed_addr #1 {
  %6 = alloca [2 x i32], align 4
  %7 = getelementptr inbounds nuw i8, ptr %0, i64 8
  %8 = getelementptr inbounds nuw i8, ptr %0, i64 28
  %9 = load i32, ptr %8, align 4, !tbaa !99
  %10 = getelementptr inbounds nuw i8, ptr %0, i64 32
  %11 = load i32, ptr %10, align 8, !tbaa !164
  %12 = shl nuw i32 1, %4
  store i32 %12, ptr %8, align 4, !tbaa !99
  %13 = getelementptr inbounds nuw i8, ptr %0, i64 240
  %14 = load ptr, ptr %13, align 8, !tbaa !126
  %15 = load i16, ptr %1, align 8, !tbaa !91
  %16 = sext i16 %15 to i32
  %17 = add nsw i32 %2, %16
  %18 = getelementptr inbounds nuw i8, ptr %1, i64 2
  %19 = load i16, ptr %18, align 2, !tbaa !91
  %20 = sext i16 %19 to i32
  %21 = add nsw i32 %3, %20
  %22 = tail call i64 %14(ptr noundef nonnull %7, i32 noundef %2, i32 noundef %3, i32 noundef %17, i32 noundef %21) #13
  store i32 %9, ptr %8, align 4, !tbaa !99
  %.not = icmp eq i64 %22, 0
  br i1 %.not, label %23, label %25

23:                                               ; preds = %5
  %24 = getelementptr inbounds nuw i8, ptr %1, i64 24
  store i32 0, ptr %24, align 8, !tbaa !88
  br label %.loopexit

25:                                               ; preds = %5
  %26 = getelementptr inbounds nuw i8, ptr %1, i64 32
  %27 = load ptr, ptr %26, align 8, !tbaa !165
  %.not75 = icmp eq ptr %27, null
  br i1 %.not75, label %28, label %30

28:                                               ; preds = %25
  %29 = tail call noalias ptr @av_mallocz(i64 noundef 160) #13
  store ptr %29, ptr %26, align 8, !tbaa !165
  %.not76 = icmp eq ptr %29, null
  br i1 %.not76, label %.loopexit, label %30

30:                                               ; preds = %28, %25
  %31 = getelementptr inbounds nuw i8, ptr %1, i64 24
  store i32 1, ptr %31, align 8, !tbaa !88
  %32 = getelementptr inbounds nuw i8, ptr %6, i64 4
  %33 = add nsw i32 %4, -1
  %34 = shl nuw i32 1, %33
  %35 = getelementptr inbounds nuw i8, ptr %0, i64 60
  %36 = getelementptr inbounds nuw i8, ptr %0, i64 64
  %37 = lshr i64 %22, 2
  %38 = icmp sgt i32 %4, 1
  br i1 %38, label %.preheader.us, label %.preheader

.preheader.us:                                    ; preds = %30, %.split82.us.us
  %39 = phi i1 [ false, %.split82.us.us ], [ true, %30 ]
  %indvars.iv95 = phi i64 [ 1, %.split82.us.us ], [ 0, %30 ]
  %40 = trunc nuw nsw i64 %indvars.iv95 to i32
  %41 = shl nuw i32 %40, %33
  %42 = add nsw i32 %41, %3
  %.idx98 = mul nuw nsw i64 %indvars.iv95, 80
  br label %43

43:                                               ; preds = %68, %.preheader.us
  %44 = phi i1 [ false, %68 ], [ true, %.preheader.us ]
  %indvars.iv92 = phi i64 [ 1, %68 ], [ 0, %.preheader.us ]
  %45 = load ptr, ptr %26, align 8, !tbaa !165
  call void @llvm.lifetime.start.p0(i64 8, ptr nonnull %6) #13
  %46 = load i16, ptr %1, align 8, !tbaa !91
  %47 = sext i16 %46 to i32
  %48 = add nsw i32 %2, %47
  store i32 %48, ptr %6, align 4, !tbaa !56
  %49 = load i16, ptr %18, align 2, !tbaa !91
  %50 = sext i16 %49 to i32
  %51 = add nsw i32 %3, %50
  store i32 %51, ptr %32, align 4, !tbaa !56
  store i32 %34, ptr %8, align 4, !tbaa !99
  store i32 2, ptr %10, align 8, !tbaa !164
  store i32 %47, ptr %35, align 4, !tbaa !104
  store i32 %50, ptr %36, align 8, !tbaa !105
  %52 = call i64 @ff_me_search_ds(ptr noundef nonnull %7, i32 noundef %48, i32 noundef %51, ptr noundef nonnull %6) #13
  %53 = load i32, ptr %6, align 4, !tbaa !56
  %54 = load i32, ptr %32, align 4, !tbaa !56
  store i32 %9, ptr %8, align 4, !tbaa !99
  store i32 %11, ptr %10, align 8, !tbaa !164
  %55 = icmp ult i64 %52, %37
  br i1 %55, label %56, label %.split.us

56:                                               ; preds = %43
  %57 = getelementptr inbounds nuw %struct.Block, ptr %45, i64 %indvars.iv92
  %58 = getelementptr inbounds nuw i8, ptr %57, i64 %.idx98
  %59 = sub nsw i32 %54, %3
  %60 = sub nsw i32 %53, %2
  %61 = trunc i32 %60 to i16
  store i16 %61, ptr %58, align 8, !tbaa !91
  %62 = trunc i32 %59 to i16
  %63 = getelementptr inbounds nuw i8, ptr %58, i64 2
  store i16 %62, ptr %63, align 2, !tbaa !91
  %64 = trunc nuw nsw i64 %indvars.iv92 to i32
  %65 = shl nuw i32 %64, %33
  %66 = add nsw i32 %65, %2
  %67 = call fastcc i32 @var_size_bme(ptr noundef nonnull %0, ptr noundef nonnull %58, i32 noundef %66, i32 noundef %42, i32 noundef %33)
  %.not77.us.us = icmp eq i32 %67, 0
  br i1 %.not77.us.us, label %68, label %.thread

68:                                               ; preds = %56
  call void @llvm.lifetime.end.p0(i64 8, ptr nonnull %6) #13
  br i1 %44, label %43, label %.split82.us.us, !llvm.loop !166

.split82.us.us:                                   ; preds = %68
  br i1 %39, label %.preheader.us, label %.loopexit, !llvm.loop !167

.preheader:                                       ; preds = %30, %.split82
  %69 = phi i1 [ false, %.split82 ], [ true, %30 ]
  %indvars.iv89 = phi i64 [ 80, %.split82 ], [ 0, %30 ]
  br label %70

70:                                               ; preds = %.preheader, %83
  %71 = phi i1 [ true, %.preheader ], [ false, %83 ]
  %indvars.iv = phi i64 [ 0, %.preheader ], [ 1, %83 ]
  %72 = load ptr, ptr %26, align 8, !tbaa !165
  call void @llvm.lifetime.start.p0(i64 8, ptr nonnull %6) #13
  %73 = load i16, ptr %1, align 8, !tbaa !91
  %74 = sext i16 %73 to i32
  %75 = add nsw i32 %2, %74
  store i32 %75, ptr %6, align 4, !tbaa !56
  %76 = load i16, ptr %18, align 2, !tbaa !91
  %77 = sext i16 %76 to i32
  %78 = add nsw i32 %3, %77
  store i32 %78, ptr %32, align 4, !tbaa !56
  store i32 %34, ptr %8, align 4, !tbaa !99
  store i32 2, ptr %10, align 8, !tbaa !164
  store i32 %74, ptr %35, align 4, !tbaa !104
  store i32 %77, ptr %36, align 8, !tbaa !105
  %79 = call i64 @ff_me_search_ds(ptr noundef nonnull %7, i32 noundef %75, i32 noundef %78, ptr noundef nonnull %6) #13
  %80 = load i32, ptr %6, align 4, !tbaa !56
  %81 = load i32, ptr %32, align 4, !tbaa !56
  store i32 %9, ptr %8, align 4, !tbaa !99
  store i32 %11, ptr %10, align 8, !tbaa !164
  %82 = icmp ult i64 %79, %37
  br i1 %82, label %83, label %.split.us

83:                                               ; preds = %70
  %84 = getelementptr inbounds nuw %struct.Block, ptr %72, i64 %indvars.iv
  %85 = getelementptr inbounds nuw i8, ptr %84, i64 %indvars.iv89
  %86 = sub nsw i32 %81, %3
  %87 = sub nsw i32 %80, %2
  %88 = trunc i32 %87 to i16
  store i16 %88, ptr %85, align 8, !tbaa !91
  %89 = trunc i32 %86 to i16
  %90 = getelementptr inbounds nuw i8, ptr %85, i64 2
  store i16 %89, ptr %90, align 2, !tbaa !91
  %91 = getelementptr inbounds nuw i8, ptr %85, i64 24
  store i32 0, ptr %91, align 8, !tbaa !88
  call void @llvm.lifetime.end.p0(i64 8, ptr nonnull %6) #13
  br i1 %71, label %70, label %.split82, !llvm.loop !166

.split.us:                                        ; preds = %70, %43
  store i32 0, ptr %31, align 8, !tbaa !88
  br label %.thread

.thread:                                          ; preds = %56, %.split.us
  %.3.ph = phi i32 [ 0, %.split.us ], [ %67, %56 ]
  call void @llvm.lifetime.end.p0(i64 8, ptr nonnull %6) #13
  br label %.loopexit

.split82:                                         ; preds = %83
  br i1 %69, label %.preheader, label %.loopexit, !llvm.loop !167

.loopexit:                                        ; preds = %.split82, %.split82.us.us, %.thread, %28, %23
  %.0 = phi i32 [ 0, %23 ], [ -12, %28 ], [ %.3.ph, %.thread ], [ 0, %.split82.us.us ], [ 0, %.split82 ]
  ret i32 %.0
}